target datalayout = "e-m:e-p270:32:32-p271:32:32-p272:64:64-i64:64-i128:128-f80:128-n8:16:32:64-S128"
target triple = "x86_64-pc-linux-gnu"

%struct._generic_N_Vector = type { ptr, ptr, ptr }
%struct._N_VectorContent_SensWrapper = type { ptr, i32, i32 }

; Function Attrs: nounwind uwtable
define double @N_VL1Norm_SensWrapper(ptr noundef %0) #0 {
  %2 = alloca ptr, align 8
  %3 = alloca i32, align 4
  %4 = alloca double, align 8
  %5 = alloca double, align 8
  store ptr %0, ptr %2, align 8, !tbaa !10
  call void @llvm.lifetime.start.p0(i64 4, ptr %3) #5
  call void @llvm.lifetime.start.p0(i64 8, ptr %4) #5
  call void @llvm.lifetime.start.p0(i64 8, ptr %5) #5
  store double 0.000000e+00, ptr %4, align 8, !tbaa !61
  store i32 0, ptr %3, align 4, !tbaa !3
  br label %6

6:                                                ; preds = %31, %1
  %7 = load i32, ptr %3, align 4, !tbaa !3
  %8 = load ptr, ptr %2, align 8, !tbaa !10
  %9 = getelementptr inbounds nuw %struct._generic_N_Vector, ptr %8, i32 0, i32 0
  %10 = load ptr, ptr %9, align 8, !tbaa !45
  %11 = getelementptr inbounds nuw %struct._N_VectorContent_SensWrapper, ptr %10, i32 0, i32 1
  %12 = load i32, ptr %11, align 8, !tbaa !40
  %13 = icmp slt i32 %7, %12
  br i1 %13, label %14, label %34

14:                                               ; preds = %6
  %15 = load ptr, ptr %2, align 8, !tbaa !10
  %16 = getelementptr inbounds nuw %struct._generic_N_Vector, ptr %15, i32 0, i32 0
  %17 = load ptr, ptr %16, align 8, !tbaa !45
  %18 = getelementptr inbounds nuw %struct._N_VectorContent_SensWrapper, ptr %17, i32 0, i32 0
  %19 = load ptr, ptr %18, align 8, !tbaa !44
  %20 = load i32, ptr %3, align 4, !tbaa !3
  %21 = sext i32 %20 to i64
  %22 = getelementptr inbounds ptr, ptr %19, i64 %21
  %23 = load ptr, ptr %22, align 8, !tbaa !10
  %24 = call double @N_VL1Norm(ptr noundef %23)
  store double %24, ptr %5, align 8, !tbaa !61
  %25 = load double, ptr %5, align 8, !tbaa !61
  %26 = load double, ptr %4, align 8, !tbaa !61
  %27 = fcmp ogt double %25, %26
  br i1 %27, label %28, label %30

28:                                               ; preds = %14
  %29 = load double, ptr %5, align 8, !tbaa !61
  store double %29, ptr %4, align 8, !tbaa !61
  br label %30

30:                                               ; preds = %28, %14
  br label %31

31:                                               ; preds = %30
  %32 = load i32, ptr %3, align 4, !tbaa !3
  %33 = add nsw i32 %32, 1
  store i32 %33, ptr %3, align 4, !tbaa !3
  br label %6

34:                                               ; preds = %6
  %35 = load double, ptr %4, align 8, !tbaa !61
  call void @llvm.lifetime.end.p0(i64 8, ptr %5) #5
  call void @llvm.lifetime.end.p0(i64 8, ptr %4) #5
  call void @llvm.lifetime.end.p0(i64 4, ptr %3) #5
  ret double %35
}